target datalayout = "e-m:e-p270:32:32-p271:32:32-p272:64:64-i64:64-i128:128-f80:128-n8:16:32:64-S128"
target triple = "x86_64-pc-linux-gnu"

%struct.Indeo3DecodeContext = type { ptr, %struct.HpelDSPContext, %struct.GetBitContext, i32, i32, ptr, ptr, ptr, i32, i16, i16, i32, i32, i16, i8, i8, ptr, ptr, ptr, i32, i32, i32, ptr, [3 x %struct.Plane] }
%struct.HpelDSPContext = type { [4 x [4 x ptr]], [4 x [4 x ptr]], [4 x [4 x ptr]], [4 x ptr] }
%struct.GetBitContext = type { ptr, ptr, i32, i32, i32 }
%struct.Plane = type { [2 x ptr], [2 x ptr], i32, i32, i64 }
%struct.Cell = type { i16, i16, i16, i16, i8, ptr }

@.str.19 = private unnamed_addr constant [40 x i8] c"Motion vectors point out of the frame.\0A\00", align 1

; Function Attrs: nounwind uwtable
define internal i32 @copy_cell(ptr noundef %0, ptr noundef %1, ptr noundef %2) #1 {
  %4 = alloca i32, align 4
  %5 = alloca ptr, align 8
  %6 = alloca ptr, align 8
  %7 = alloca ptr, align 8
  %8 = alloca i32, align 4
  %9 = alloca i32, align 4
  %10 = alloca i32, align 4
  %11 = alloca i32, align 4
  %12 = alloca i32, align 4
  %13 = alloca i32, align 4
  %14 = alloca ptr, align 8
  %15 = alloca ptr, align 8
  %16 = alloca i32, align 4
  store ptr %0, ptr %5, align 8, !tbaa !29
  store ptr %1, ptr %6, align 8, !tbaa !80
  store ptr %2, ptr %7, align 8, !tbaa !111
  call void @llvm.lifetime.start.p0(i64 4, ptr %8) #10
  call void @llvm.lifetime.start.p0(i64 4, ptr %9) #10
  call void @llvm.lifetime.start.p0(i64 4, ptr %10) #10
  call void @llvm.lifetime.start.p0(i64 4, ptr %11) #10
  call void @llvm.lifetime.start.p0(i64 4, ptr %12) #10
  call void @llvm.lifetime.start.p0(i64 4, ptr %13) #10
  call void @llvm.lifetime.start.p0(i64 8, ptr %14) #10
  call void @llvm.lifetime.start.p0(i64 8, ptr %15) #10
  %17 = load ptr, ptr %7, align 8, !tbaa !111
  %18 = getelementptr inbounds nuw %struct.Cell, ptr %17, i32 0, i32 1
  %19 = load i16, ptr %18, align 2, !tbaa !87
  %20 = sext i16 %19 to i32
  %21 = shl i32 %20, 2
  %22 = sext i32 %21 to i64
  %23 = load ptr, ptr %6, align 8, !tbaa !80
  %24 = getelementptr inbounds nuw %struct.Plane, ptr %23, i32 0, i32 4
  %25 = load i64, ptr %24, align 8, !tbaa !66
  %26 = mul nsw i64 %22, %25
  %27 = load ptr, ptr %7, align 8, !tbaa !111
  %28 = getelementptr inbounds nuw %struct.Cell, ptr %27, i32 0, i32 0
  %29 = load i16, ptr %28, align 8, !tbaa !89
  %30 = sext i16 %29 to i32
  %31 = shl i32 %30, 2
  %32 = sext i32 %31 to i64
  %33 = add nsw i64 %26, %32
  %34 = trunc i64 %33 to i32
  store i32 %34, ptr %13, align 4, !tbaa !49
  %35 = load ptr, ptr %6, align 8, !tbaa !80
  %36 = getelementptr inbounds nuw %struct.Plane, ptr %35, i32 0, i32 1
  %37 = load ptr, ptr %5, align 8, !tbaa !29
  %38 = getelementptr inbounds nuw %struct.Indeo3DecodeContext, ptr %37, i32 0, i32 15
  %39 = load i8, ptr %38, align 1, !tbaa !52
  %40 = zext i8 %39 to i64
  %41 = getelementptr inbounds nuw [2 x ptr], ptr %36, i64 0, i64 %40
  %42 = load ptr, ptr %41, align 8, !tbaa !47
  %43 = load i32, ptr %13, align 4, !tbaa !49
  %44 = sext i32 %43 to i64
  %45 = getelementptr inbounds i8, ptr %42, i64 %44
  store ptr %45, ptr %15, align 8, !tbaa !47
  %46 = load ptr, ptr %7, align 8, !tbaa !111
  %47 = getelementptr inbounds nuw %struct.Cell, ptr %46, i32 0, i32 5
  %48 = load ptr, ptr %47, align 8, !tbaa !93
  %49 = icmp ne ptr %48, null
  br i1 %49, label %50, label %63

50:                                               ; preds = %3
  %51 = load ptr, ptr %7, align 8, !tbaa !111
  %52 = getelementptr inbounds nuw %struct.Cell, ptr %51, i32 0, i32 5
  %53 = load ptr, ptr %52, align 8, !tbaa !93
  %54 = getelementptr inbounds i8, ptr %53, i64 0
  %55 = load i8, ptr %54, align 1, !tbaa !59
  %56 = sext i8 %55 to i32
  store i32 %56, ptr %11, align 4, !tbaa !49
  %57 = load ptr, ptr %7, align 8, !tbaa !111
  %58 = getelementptr inbounds nuw %struct.Cell, ptr %57, i32 0, i32 5
  %59 = load ptr, ptr %58, align 8, !tbaa !93
  %60 = getelementptr inbounds i8, ptr %59, i64 1
  %61 = load i8, ptr %60, align 1, !tbaa !59
  %62 = sext i8 %61 to i32
  store i32 %62, ptr %10, align 4, !tbaa !49
  br label %64

63:                                               ; preds = %3
  store i32 0, ptr %11, align 4, !tbaa !49
  store i32 0, ptr %10, align 4, !tbaa !49
  br label %64

64:                                               ; preds = %63, %50
  %65 = load ptr, ptr %7, align 8, !tbaa !111
  %66 = getelementptr inbounds nuw %struct.Cell, ptr %65, i32 0, i32 1
  %67 = load i16, ptr %66, align 2, !tbaa !87
  %68 = sext i16 %67 to i32
  %69 = shl i32 %68, 2
  %70 = load i32, ptr %11, align 4, !tbaa !49
  %71 = add nsw i32 %69, %70
  %72 = icmp slt i32 %71, -1
  br i1 %72, label %116, label %73

73:                                               ; preds = %64
  %74 = load ptr, ptr %7, align 8, !tbaa !111
  %75 = getelementptr inbounds nuw %struct.Cell, ptr %74, i32 0, i32 0
  %76 = load i16, ptr %75, align 8, !tbaa !89
  %77 = sext i16 %76 to i32
  %78 = shl i32 %77, 2
  %79 = load i32, ptr %10, align 4, !tbaa !49
  %80 = add nsw i32 %78, %79
  %81 = icmp slt i32 %80, 0
  br i1 %81, label %116, label %82

82:                                               ; preds = %73
  %83 = load ptr, ptr %7, align 8, !tbaa !111
  %84 = getelementptr inbounds nuw %struct.Cell, ptr %83, i32 0, i32 1
  %85 = load i16, ptr %84, align 2, !tbaa !87
  %86 = sext i16 %85 to i32
  %87 = load ptr, ptr %7, align 8, !tbaa !111
  %88 = getelementptr inbounds nuw %struct.Cell, ptr %87, i32 0, i32 3
  %89 = load i16, ptr %88, align 2, !tbaa !91
  %90 = sext i16 %89 to i32
  %91 = add nsw i32 %86, %90
  %92 = shl i32 %91, 2
  %93 = load i32, ptr %11, align 4, !tbaa !49
  %94 = add nsw i32 %92, %93
  %95 = load ptr, ptr %6, align 8, !tbaa !80
  %96 = getelementptr inbounds nuw %struct.Plane, ptr %95, i32 0, i32 3
  %97 = load i32, ptr %96, align 4, !tbaa !69
  %98 = icmp ugt i32 %94, %97
  br i1 %98, label %116, label %99

99:                                               ; preds = %82
  %100 = load ptr, ptr %7, align 8, !tbaa !111
  %101 = getelementptr inbounds nuw %struct.Cell, ptr %100, i32 0, i32 0
  %102 = load i16, ptr %101, align 8, !tbaa !89
  %103 = sext i16 %102 to i32
  %104 = load ptr, ptr %7, align 8, !tbaa !111
  %105 = getelementptr inbounds nuw %struct.Cell, ptr %104, i32 0, i32 2
  %106 = load i16, ptr %105, align 4, !tbaa !90
  %107 = sext i16 %106 to i32
  %108 = add nsw i32 %103, %107
  %109 = shl i32 %108, 2
  %110 = load i32, ptr %10, align 4, !tbaa !49
  %111 = add nsw i32 %109, %110
  %112 = load ptr, ptr %6, align 8, !tbaa !80
  %113 = getelementptr inbounds nuw %struct.Plane, ptr %112, i32 0, i32 2
  %114 = load i32, ptr %113, align 8, !tbaa !68
  %115 = icmp ugt i32 %111, %114
  br i1 %115, label %116, label %120

116:                                              ; preds = %99, %82, %73, %64
  %117 = load ptr, ptr %5, align 8, !tbaa !29
  %118 = getelementptr inbounds nuw %struct.Indeo3DecodeContext, ptr %117, i32 0, i32 0
  %119 = load ptr, ptr %118, align 8, !tbaa !31
  call void (ptr, i32, ptr, ...) @av_log(ptr noundef %119, i32 noundef 16, ptr noundef @.str.19)
  store i32 -1094995529, ptr %4, align 4
  store i32 1, ptr %16, align 4
  br label %250

120:                                              ; preds = %99
  %121 = load i32, ptr %13, align 4, !tbaa !49
  %122 = sext i32 %121 to i64
  %123 = load i32, ptr %11, align 4, !tbaa !49
  %124 = sext i32 %123 to i64
  %125 = load ptr, ptr %6, align 8, !tbaa !80
  %126 = getelementptr inbounds nuw %struct.Plane, ptr %125, i32 0, i32 4
  %127 = load i64, ptr %126, align 8, !tbaa !66
  %128 = mul nsw i64 %124, %127
  %129 = add nsw i64 %122, %128
  %130 = load i32, ptr %10, align 4, !tbaa !49
  %131 = sext i32 %130 to i64
  %132 = add nsw i64 %129, %131
  %133 = trunc i64 %132 to i32
  store i32 %133, ptr %12, align 4, !tbaa !49
  %134 = load ptr, ptr %6, align 8, !tbaa !80
  %135 = getelementptr inbounds nuw %struct.Plane, ptr %134, i32 0, i32 1
  %136 = load ptr, ptr %5, align 8, !tbaa !29
  %137 = getelementptr inbounds nuw %struct.Indeo3DecodeContext, ptr %136, i32 0, i32 15
  %138 = load i8, ptr %137, align 1, !tbaa !52
  %139 = zext i8 %138 to i32
  %140 = xor i32 %139, 1
  %141 = sext i32 %140 to i64
  %142 = getelementptr inbounds [2 x ptr], ptr %135, i64 0, i64 %141
  %143 = load ptr, ptr %142, align 8, !tbaa !47
  %144 = load i32, ptr %12, align 4, !tbaa !49
  %145 = sext i32 %144 to i64
  %146 = getelementptr inbounds i8, ptr %143, i64 %145
  store ptr %146, ptr %14, align 8, !tbaa !47
  %147 = load ptr, ptr %7, align 8, !tbaa !111
  %148 = getelementptr inbounds nuw %struct.Cell, ptr %147, i32 0, i32 3
  %149 = load i16, ptr %148, align 2, !tbaa !91
  %150 = sext i16 %149 to i32
  %151 = shl i32 %150, 2
  store i32 %151, ptr %8, align 4, !tbaa !49
  %152 = load ptr, ptr %7, align 8, !tbaa !111
  %153 = getelementptr inbounds nuw %struct.Cell, ptr %152, i32 0, i32 2
  %154 = load i16, ptr %153, align 4, !tbaa !90
  %155 = sext i16 %154 to i32
  store i32 %155, ptr %9, align 4, !tbaa !49
  br label %156

156:                                              ; preds = %248, %120
  %157 = load i32, ptr %9, align 4, !tbaa !49
  %158 = icmp sgt i32 %157, 0
  br i1 %158, label %159, label %249

159:                                              ; preds = %156
  %160 = load ptr, ptr %7, align 8, !tbaa !111
  %161 = getelementptr inbounds nuw %struct.Cell, ptr %160, i32 0, i32 0
  %162 = load i16, ptr %161, align 8, !tbaa !89
  %163 = sext i16 %162 to i32
  %164 = shl i32 %163, 2
  %165 = and i32 %164, 15
  %166 = icmp ne i32 %165, 0
  br i1 %166, label %195, label %167

167:                                              ; preds = %159
  %168 = load i32, ptr %9, align 4, !tbaa !49
  %169 = icmp sge i32 %168, 4
  br i1 %169, label %170, label %195

170:                                              ; preds = %167
  br label %171

171:                                              ; preds = %187, %170
  %172 = load i32, ptr %9, align 4, !tbaa !49
  %173 = icmp sge i32 %172, 4
  br i1 %173, label %174, label %194

174:                                              ; preds = %171
  %175 = load ptr, ptr %5, align 8, !tbaa !29
  %176 = getelementptr inbounds nuw %struct.Indeo3DecodeContext, ptr %175, i32 0, i32 1
  %177 = getelementptr inbounds nuw %struct.HpelDSPContext, ptr %176, i32 0, i32 0
  %178 = getelementptr inbounds [4 x [4 x ptr]], ptr %177, i64 0, i64 0
  %179 = getelementptr inbounds [4 x ptr], ptr %178, i64 0, i64 0
  %180 = load ptr, ptr %179, align 8, !tbaa !117
  %181 = load ptr, ptr %15, align 8, !tbaa !47
  %182 = load ptr, ptr %14, align 8, !tbaa !47
  %183 = load ptr, ptr %6, align 8, !tbaa !80
  %184 = getelementptr inbounds nuw %struct.Plane, ptr %183, i32 0, i32 4
  %185 = load i64, ptr %184, align 8, !tbaa !66
  %186 = load i32, ptr %8, align 4, !tbaa !49
  call void %180(ptr noundef %181, ptr noundef %182, i64 noundef %185, i32 noundef %186)
  br label %187

187:                                              ; preds = %174
  %188 = load ptr, ptr %14, align 8, !tbaa !47
  %189 = getelementptr inbounds i8, ptr %188, i64 16
  store ptr %189, ptr %14, align 8, !tbaa !47
  %190 = load ptr, ptr %15, align 8, !tbaa !47
  %191 = getelementptr inbounds i8, ptr %190, i64 16
  store ptr %191, ptr %15, align 8, !tbaa !47
  %192 = load i32, ptr %9, align 4, !tbaa !49
  %193 = sub nsw i32 %192, 4
  store i32 %193, ptr %9, align 4, !tbaa !49
  br label %171, !llvm.loop !118

194:                                              ; preds = %171
  br label %195

195:                                              ; preds = %194, %167, %159
  %196 = load ptr, ptr %7, align 8, !tbaa !111
  %197 = getelementptr inbounds nuw %struct.Cell, ptr %196, i32 0, i32 0
  %198 = load i16, ptr %197, align 8, !tbaa !89
  %199 = sext i16 %198 to i32
  %200 = shl i32 %199, 2
  %201 = and i32 %200, 7
  %202 = icmp ne i32 %201, 0
  br i1 %202, label %225, label %203

203:                                              ; preds = %195
  %204 = load i32, ptr %9, align 4, !tbaa !49
  %205 = icmp sge i32 %204, 2
  br i1 %205, label %206, label %225

206:                                              ; preds = %203
  %207 = load ptr, ptr %5, align 8, !tbaa !29
  %208 = getelementptr inbounds nuw %struct.Indeo3DecodeContext, ptr %207, i32 0, i32 1
  %209 = getelementptr inbounds nuw %struct.HpelDSPContext, ptr %208, i32 0, i32 0
  %210 = getelementptr inbounds [4 x [4 x ptr]], ptr %209, i64 0, i64 1
  %211 = getelementptr inbounds [4 x ptr], ptr %210, i64 0, i64 0
  %212 = load ptr, ptr %211, align 8, !tbaa !117
  %213 = load ptr, ptr %15, align 8, !tbaa !47
  %214 = load ptr, ptr %14, align 8, !tbaa !47
  %215 = load ptr, ptr %6, align 8, !tbaa !80
  %216 = getelementptr inbounds nuw %struct.Plane, ptr %215, i32 0, i32 4
  %217 = load i64, ptr %216, align 8, !tbaa !66
  %218 = load i32, ptr %8, align 4, !tbaa !49
  call void %212(ptr noundef %213, ptr noundef %214, i64 noundef %217, i32 noundef %218)
  %219 = load i32, ptr %9, align 4, !tbaa !49
  %220 = sub nsw i32 %219, 2
  store i32 %220, ptr %9, align 4, !tbaa !49
  %221 = load ptr, ptr %14, align 8, !tbaa !47
  %222 = getelementptr inbounds i8, ptr %221, i64 8
  store ptr %222, ptr %14, align 8, !tbaa !47
  %223 = load ptr, ptr %15, align 8, !tbaa !47
  %224 = getelementptr inbounds i8, ptr %223, i64 8
  store ptr %224, ptr %15, align 8, !tbaa !47
  br label %248

225:                                              ; preds = %203, %195
  %226 = load i32, ptr %9, align 4, !tbaa !49
  %227 = icmp sge i32 %226, 1
  br i1 %227, label %228, label %247

228:                                              ; preds = %225
  %229 = load ptr, ptr %5, align 8, !tbaa !29
  %230 = getelementptr inbounds nuw %struct.Indeo3DecodeContext, ptr %229, i32 0, i32 1
  %231 = getelementptr inbounds nuw %struct.HpelDSPContext, ptr %230, i32 0, i32 0
  %232 = getelementptr inbounds [4 x [4 x ptr]], ptr %231, i64 0, i64 2
  %233 = getelementptr inbounds [4 x ptr], ptr %232, i64 0, i64 0
  %234 = load ptr, ptr %233, align 8, !tbaa !117
  %235 = load ptr, ptr %15, align 8, !tbaa !47
  %236 = load ptr, ptr %14, align 8, !tbaa !47
  %237 = load ptr, ptr %6, align 8, !tbaa !80
  %238 = getelementptr inbounds nuw %struct.Plane, ptr %237, i32 0, i32 4
  %239 = load i64, ptr %238, align 8, !tbaa !66
  %240 = load i32, ptr %8, align 4, !tbaa !49
  call void %234(ptr noundef %235, ptr noundef %236, i64 noundef %239, i32 noundef %240)
  %241 = load i32, ptr %9, align 4, !tbaa !49
  %242 = add nsw i32 %241, -1
  store i32 %242, ptr %9, align 4, !tbaa !49
  %243 = load ptr, ptr %14, align 8, !tbaa !47
  %244 = getelementptr inbounds i8, ptr %243, i64 4
  store ptr %244, ptr %14, align 8, !tbaa !47
  %245 = load ptr, ptr %15, align 8, !tbaa !47
  %246 = getelementptr inbounds i8, ptr %245, i64 4
  store ptr %246, ptr %15, align 8, !tbaa !47
  br label %247

247:                                              ; preds = %228, %225
  br label %248

248:                                              ; preds = %247, %206
  br label %156, !llvm.loop !119

249:                                              ; preds = %156
  store i32 0, ptr %4, align 4
  store i32 1, ptr %16, align 4
  br label %250

250:                                              ; preds = %249, %116
  call void @llvm.lifetime.end.p0(i64 8, ptr %15) #10
  call void @llvm.lifetime.end.p0(i64 8, ptr %14) #10
  call void @llvm.lifetime.end.p0(i64 4, ptr %13) #10
  call void @llvm.lifetime.end.p0(i64 4, ptr %12) #10
  call void @llvm.lifetime.end.p0(i64 4, ptr %11) #10
  call void @llvm.lifetime.end.p0(i64 4, ptr %10) #10
  call void @llvm.lifetime.end.p0(i64 4, ptr %9) #10
  call void @llvm.lifetime.end.p0(i64 4, ptr %8) #10
  %251 = load i32, ptr %4, align 4
  ret i32 %251
}