; Function Attrs: nounwind uwtable
define internal fastcc range(i32 -1094995529, 1) i32 @copy_cell(ptr noundef readonly captures(none) %0, ptr noundef readonly captures(none) %1, ptr noundef nonnull readonly captures(none) %2) unnamed_addr #1 {
  %4 = getelementptr inbounds nuw i8, ptr %2, i64 2
  %5 = load i16, ptr %4, align 2, !tbaa !78
  %6 = sext i16 %5 to i64
  %7 = getelementptr inbounds nuw i8, ptr %1, i64 40
  %8 = load i64, ptr %7, align 8, !tbaa !63
  %9 = load i16, ptr %2, align 8, !tbaa !80
  %10 = sext i16 %9 to i64
  %11 = getelementptr inbounds nuw i8, ptr %1, i64 16
  %12 = getelementptr inbounds nuw i8, ptr %0, i64 507
  %13 = load i8, ptr %12, align 1, !tbaa !59
  %14 = zext i8 %13 to i64
  %15 = getelementptr inbounds nuw [2 x ptr], ptr %11, i64 0, i64 %14
  %16 = load ptr, ptr %15, align 8, !tbaa !60
  %17 = mul i64 %8, %6
  %reass.add = add i64 %17, %10
  %reass.mul = shl i64 %reass.add, 34
  %18 = ashr exact i64 %reass.mul, 32
  %19 = getelementptr inbounds i8, ptr %16, i64 %18
  %20 = getelementptr inbounds nuw i8, ptr %2, i64 16
  %21 = load ptr, ptr %20, align 8, !tbaa !84
  %.not = icmp eq ptr %21, null
  br i1 %.not, label %28, label %22

22:                                               ; preds = %3
  %23 = load i8, ptr %21, align 1, !tbaa !40
  %24 = sext i8 %23 to i32
  %25 = getelementptr inbounds nuw i8, ptr %21, i64 1
  %26 = load i8, ptr %25, align 1, !tbaa !40
  %27 = sext i8 %26 to i32
  br label %28

28:                                               ; preds = %3, %22
  %.078 = phi i32 [ %27, %22 ], [ 0, %3 ]
  %.077 = phi i32 [ %24, %22 ], [ 0, %3 ]
  %29 = sext i16 %5 to i32
  %30 = shl nsw i32 %29, 2
  %31 = add nsw i32 %.077, %30
  %32 = icmp slt i32 %31, -1
  br i1 %32, label %58, label %33

33:                                               ; preds = %28
  %34 = sext i16 %9 to i32
  %35 = shl nsw i32 %34, 2
  %36 = add nsw i32 %.078, %35
  %37 = icmp slt i32 %36, 0
  br i1 %37, label %58, label %38

38:                                               ; preds = %33
  %39 = getelementptr inbounds nuw i8, ptr %2, i64 6
  %40 = load i16, ptr %39, align 2, !tbaa !82
  %41 = sext i16 %40 to i32
  %42 = add nsw i32 %41, %29
  %43 = shl nsw i32 %42, 2
  %44 = add nsw i32 %43, %.077
  %45 = getelementptr inbounds nuw i8, ptr %1, i64 36
  %46 = load i32, ptr %45, align 4, !tbaa !66
  %47 = icmp ugt i32 %44, %46
  br i1 %47, label %58, label %48

48:                                               ; preds = %38
  %49 = getelementptr inbounds nuw i8, ptr %2, i64 4
  %50 = load i16, ptr %49, align 4, !tbaa !81
  %51 = sext i16 %50 to i32
  %52 = add nsw i32 %51, %34
  %53 = shl nsw i32 %52, 2
  %54 = add nsw i32 %53, %.078
  %55 = getelementptr inbounds nuw i8, ptr %1, i64 32
  %56 = load i32, ptr %55, align 8, !tbaa !65
  %57 = icmp ugt i32 %54, %56
  br i1 %57, label %58, label %60

58:                                               ; preds = %48, %38, %33, %28
  %59 = load ptr, ptr %0, align 8, !tbaa !27
  tail call void (ptr, i32, ptr, ...) @av_log(ptr noundef %59, i32 noundef 16, ptr noundef nonnull @.str.19) #10
  br label %.loopexit82

60:                                               ; preds = %48
  %61 = shl nsw i32 %41, 2
  %62 = icmp sgt i16 %50, 0
  br i1 %62, label %.lr.ph, label %.loopexit82

.lr.ph:                                           ; preds = %60
  %63 = xor i8 %13, 1
  %64 = zext i8 %63 to i64
  %65 = getelementptr inbounds nuw [2 x ptr], ptr %11, i64 0, i64 %64
  %66 = load ptr, ptr %65, align 8, !tbaa !60
  %67 = zext i32 %.077 to i64
  %68 = mul i64 %8, %67
  %69 = add i64 %68, %18
  %70 = trunc i64 %69 to i32
  %71 = add i32 %.078, %70
  %72 = sext i32 %71 to i64
  %73 = getelementptr inbounds i8, ptr %66, i64 %72
  %74 = getelementptr inbounds nuw i8, ptr %0, i64 8
  %75 = getelementptr inbounds nuw i8, ptr %0, i64 72
  %76 = getelementptr inbounds nuw i8, ptr %0, i64 40
  br label %77

77:                                               ; preds = %.lr.ph, %92
  %.087 = phi ptr [ %19, %.lr.ph ], [ %96, %92 ]
  %.06886 = phi ptr [ %73, %.lr.ph ], [ %95, %92 ]
  %.07385 = phi i32 [ %51, %.lr.ph ], [ %94, %92 ]
  %78 = load i16, ptr %2, align 8, !tbaa !80
  %79 = and i16 %78, 3
  %80 = icmp eq i16 %79, 0
  %81 = icmp samesign ugt i32 %.07385, 3
  %or.cond = and i1 %81, %80
  br i1 %or.cond, label %.preheader, label %.loopexit

.preheader:                                       ; preds = %77, %.preheader
  %.275 = phi i32 [ %86, %.preheader ], [ %.07385, %77 ]
  %.270 = phi ptr [ %84, %.preheader ], [ %.06886, %77 ]
  %.2 = phi ptr [ %85, %.preheader ], [ %.087, %77 ]
  %82 = load ptr, ptr %74, align 8, !tbaa !93
  %83 = load i64, ptr %7, align 8, !tbaa !63
  tail call void %82(ptr noundef %.2, ptr noundef %.270, i64 noundef %83, i32 noundef %61) #10
  %84 = getelementptr inbounds nuw i8, ptr %.270, i64 16
  %85 = getelementptr inbounds nuw i8, ptr %.2, i64 16
  %86 = add nsw i32 %.275, -4
  %.old4 = icmp samesign ugt i32 %.275, 7
  br i1 %.old4, label %.preheader, label %.loopexit.loopexit

.loopexit.loopexit:                               ; preds = %.preheader
  %.pre = load i16, ptr %2, align 8, !tbaa !80
  br label %.loopexit

.loopexit:                                        ; preds = %.loopexit.loopexit, %77
  %87 = phi i16 [ %78, %77 ], [ %.pre, %.loopexit.loopexit ]
  %.174 = phi i32 [ %.07385, %77 ], [ %86, %.loopexit.loopexit ]
  %.169 = phi ptr [ %.06886, %77 ], [ %84, %.loopexit.loopexit ]
  %.1 = phi ptr [ %.087, %77 ], [ %85, %.loopexit.loopexit ]
  %88 = and i16 %87, 1
  %89 = icmp eq i16 %88, 0
  %90 = icmp samesign ugt i32 %.174, 1
  %or.cond3 = select i1 %89, i1 %90, i1 false
  br i1 %or.cond3, label %92, label %91

91:                                               ; preds = %.loopexit
  %.not81 = icmp eq i32 %.174, 0
  br i1 %.not81, label %.loopexit82, label %92

92:                                               ; preds = %91, %.loopexit
  %.sink98.in = phi ptr [ %76, %.loopexit ], [ %75, %91 ]
  %.sink96 = phi i32 [ -2, %.loopexit ], [ -1, %91 ]
  %.sink95 = phi i64 [ 8, %.loopexit ], [ 4, %91 ]
  %.sink98 = load ptr, ptr %.sink98.in, align 8, !tbaa !93
  %93 = load i64, ptr %7, align 8, !tbaa !63
  tail call void %.sink98(ptr noundef %.1, ptr noundef %.169, i64 noundef %93, i32 noundef %61) #10
  %94 = add nsw i32 %.174, %.sink96
  %95 = getelementptr inbounds nuw i8, ptr %.169, i64 %.sink95
  %96 = getelementptr inbounds nuw i8, ptr %.1, i64 %.sink95
  %97 = icmp sgt i32 %94, 0
  br i1 %97, label %77, label %.loopexit82, !llvm.loop !94

.loopexit82:                                      ; preds = %91, %92, %60, %58
  %.072 = phi i32 [ -1094995529, %58 ], [ 0, %60 ], [ 0, %92 ], [ 0, %91 ]
  ret i32 %.072
}